target datalayout = "e-m:e-p270:32:32-p271:32:32-p272:64:64-i64:64-i128:128-f80:128-n8:16:32:64-S128"
target triple = "x86_64-pc-linux-gnu"

%struct.scancel_options = type { ptr, i8, ptr, i8, ptr, i8, i8, i8, i8, ptr, ptr, ptr, ptr, i16, i32, i32, ptr, i32, ptr, ptr, ptr, i16, ptr, ptr, ptr, ptr, ptr }
%struct.log_options_t = type { i32, i32, i32, i8, i8, i8, i32 }

@__const.main.log_opts = private unnamed_addr constant { i32, i32, i32, i8, i8, i8, i8, i32 } { i32 3, i32 0, i32 0, i8 1, i8 0, i8 0, i8 0, i32 0 }, align 4
@opt = dso_local global %struct.scancel_options zeroinitializer, align 8
@working_cluster_rec = external global ptr, align 8

; Function Attrs: nounwind uwtable
define internal i32 @_multi_cluster(ptr noundef %0) #0 {
  %2 = alloca ptr, align 8
  %3 = alloca ptr, align 8
  %4 = alloca i32, align 4
  %5 = alloca i32, align 4
  store ptr %0, ptr %2, align 8
  call void @llvm.lifetime.start.p0(i64 8, ptr %3) #9
  call void @llvm.lifetime.start.p0(i64 4, ptr %4) #9
  store i32 0, ptr %4, align 4
  call void @llvm.lifetime.start.p0(i64 4, ptr %5) #9
  %6 = load ptr, ptr %2, align 8
  %7 = call ptr @list_iterator_create(ptr noundef %6)
  store ptr %7, ptr %3, align 8
  br label %8

8:                                                ; preds = %21, %1
  %9 = load ptr, ptr %3, align 8
  %10 = call ptr @list_next(ptr noundef %9)
  store ptr %10, ptr @working_cluster_rec, align 8
  %11 = icmp ne ptr %10, null
  br i1 %11, label %12, label %23

12:                                               ; preds = %8
  %13 = call i32 @_proc_cluster()
  store i32 %13, ptr %5, align 4
  %14 = load i32, ptr %4, align 4
  %15 = load i32, ptr %5, align 4
  %16 = icmp sgt i32 %14, %15
  br i1 %16, label %17, label %19

17:                                               ; preds = %12
  %18 = load i32, ptr %4, align 4
  br label %21

19:                                               ; preds = %12
  %20 = load i32, ptr %5, align 4
  br label %21

21:                                               ; preds = %19, %17
  %22 = phi i32 [ %18, %17 ], [ %20, %19 ]
  store i32 %22, ptr %4, align 4
  br label %8, !llvm.loop !8

23:                                               ; preds = %8
  %24 = load ptr, ptr %3, align 8
  call void @list_iterator_destroy(ptr noundef %24)
  %25 = load i32, ptr %4, align 4
  call void @llvm.lifetime.end.p0(i64 4, ptr %5) #9
  call void @llvm.lifetime.end.p0(i64 4, ptr %4) #9
  call void @llvm.lifetime.end.p0(i64 8, ptr %3) #9
  ret i32 %25
}

; Function Attrs: nounwind uwtable
define dso_local i32 @main(i32 noundef %0, ptr noundef %1) #0 {
  %3 = alloca i32, align 4
  %4 = alloca i32, align 4
  %5 = alloca ptr, align 8
  %6 = alloca %struct.log_options_t, align 8
  %7 = alloca i32, align 4
  store i32 0, ptr %3, align 4
  store i32 %0, ptr %4, align 4
  store ptr %1, ptr %5, align 8
  call void @llvm.lifetime.start.p0(i64 20, ptr %6) #9
  call void @llvm.memcpy.p0.p0.i64(ptr align 4 %6, ptr align 4 @__const.main.log_opts, i64 20, i1 false)
  call void @llvm.lifetime.start.p0(i64 4, ptr %7) #9
  store i32 0, ptr %7, align 4
  call void @slurm_init(ptr noundef null)
  %8 = load ptr, ptr %5, align 8
  %9 = getelementptr inbounds ptr, ptr %8, i64 0
  %10 = load ptr, ptr %9, align 8
  %11 = call ptr @xbasename(ptr noundef %10)
  %12 = call i32 @log_init(ptr noundef %11, ptr noundef byval(%struct.log_options_t) align 8 %6, i32 noundef 24, ptr noundef null)
  %13 = load i32, ptr %4, align 4
  %14 = load ptr, ptr %5, align 8
  %15 = call i32 @initialize_and_process_args(i32 noundef %13, ptr noundef %14)
  %16 = load i32, ptr getelementptr inbounds nuw (%struct.scancel_options, ptr @opt, i32 0, i32 17), align 8
  %17 = icmp ne i32 %16, 0
  br i1 %17, label %18, label %24

18:                                               ; preds = %2
  %19 = load i32, ptr getelementptr inbounds nuw (%struct.scancel_options, ptr @opt, i32 0, i32 17), align 8
  %20 = getelementptr inbounds nuw %struct.log_options_t, ptr %6, i32 0, i32 0
  %21 = load i32, ptr %20, align 4
  %22 = add i32 %21, %19
  store i32 %22, ptr %20, align 4
  %23 = call i32 @log_alter(ptr noundef byval(%struct.log_options_t) align 8 %6, i32 noundef 24, ptr noundef null)
  br label %24

24:                                               ; preds = %18, %2
  %25 = load ptr, ptr getelementptr inbounds nuw (%struct.scancel_options, ptr @opt, i32 0, i32 4), align 8
  %26 = icmp ne ptr %25, null
  br i1 %26, label %27, label %30

27:                                               ; preds = %24
  %28 = load ptr, ptr getelementptr inbounds nuw (%struct.scancel_options, ptr @opt, i32 0, i32 4), align 8
  %29 = call i32 @_multi_cluster(ptr noundef %28)
  store i32 %29, ptr %7, align 4
  br label %32

30:                                               ; preds = %24
  %31 = call i32 @_proc_cluster()
  store i32 %31, ptr %7, align 4
  br label %32

32:                                               ; preds = %30, %27
  %33 = load i32, ptr %7, align 4
  call void @exit(i32 noundef %33) #10
  unreachable
}